; ModuleID = '49/832.c'
source_filename = "49/832.c"
target datalayout = "e-m:e-p270:32:32-p271:32:32-p272:64:64-i64:64-f80:128-n8:16:32:64-S128"
target triple = "x86_64-pc-linux-gnu"

@.str = private unnamed_addr constant [3 x i8] c"%s\00", align 1
@.str.1 = private unnamed_addr constant [3 x i8] c"%c\00", align 1
@.str.2 = private unnamed_addr constant [2 x i8] c"\0A\00", align 1

; Function Attrs: noinline nounwind uwtable
define dso_local i32 @main() #0 {
  %1 = alloca i32, align 4
  %2 = alloca i32, align 4
  %3 = alloca i32, align 4
  %4 = alloca i32, align 4
  %5 = alloca i32, align 4
  %6 = alloca i32, align 4
  %7 = alloca i32, align 4
  %8 = alloca i32, align 4
  %9 = alloca [600 x i8], align 16
  store i32 0, i32* %1, align 4
  %10 = getelementptr inbounds [600 x i8], [600 x i8]* %9, i64 0, i64 0
  %11 = call i32 (i8*, ...) @__isoc99_scanf(i8* getelementptr inbounds ([3 x i8], [3 x i8]* @.str, i64 0, i64 0), i8* %10)
  %12 = getelementptr inbounds [600 x i8], [600 x i8]* %9, i64 0, i64 0
  %13 = call i64 @strlen(i8* %12) #3
  %14 = trunc i64 %13 to i32
  store i32 %14, i32* %8, align 4
  store i32 2, i32* %3, align 4
  br label %15

15:                                               ; preds = %93, %0
  %16 = load i32, i32* %3, align 4
  %17 = load i32, i32* %8, align 4
  %18 = icmp sle i32 %16, %17
  br i1 %18, label %19, label %96

19:                                               ; preds = %15
  store i32 0, i32* %4, align 4
  br label %20

20:                                               ; preds = %89, %19
  %21 = load i32, i32* %4, align 4
  %22 = load i32, i32* %8, align 4
  %23 = load i32, i32* %3, align 4
  %24 = sub nsw i32 %22, %23
  %25 = icmp sle i32 %21, %24
  br i1 %25, label %26, label %92

26:                                               ; preds = %20
  store i32 0, i32* %7, align 4
  store i32 0, i32* %6, align 4
  br label %27

27:                                               ; preds = %53, %26
  %28 = load i32, i32* %6, align 4
  %29 = load i32, i32* %3, align 4
  %30 = sdiv i32 %29, 2
  %31 = icmp sle i32 %28, %30
  br i1 %31, label %32, label %56

32:                                               ; preds = %27
  %33 = load i32, i32* %4, align 4
  %34 = load i32, i32* %6, align 4
  %35 = add nsw i32 %33, %34
  %36 = sext i32 %35 to i64
  %37 = getelementptr inbounds [600 x i8], [600 x i8]* %9, i64 0, i64 %36
  %38 = load i8, i8* %37, align 1
  %39 = sext i8 %38 to i32
  %40 = load i32, i32* %4, align 4
  %41 = load i32, i32* %3, align 4
  %42 = add nsw i32 %40, %41
  %43 = sub nsw i32 %42, 1
  %44 = load i32, i32* %6, align 4
  %45 = sub nsw i32 %43, %44
  %46 = sext i32 %45 to i64
  %47 = getelementptr inbounds [600 x i8], [600 x i8]* %9, i64 0, i64 %46
  %48 = load i8, i8* %47, align 1
  %49 = sext i8 %48 to i32
  %50 = icmp ne i32 %39, %49
  br i1 %50, label %51, label %52

51:                                               ; preds = %32
  store i32 1, i32* %7, align 4
  br label %56

52:                                               ; preds = %32
  br label %53

53:                                               ; preds = %52
  %54 = load i32, i32* %6, align 4
  %55 = add nsw i32 %54, 1
  store i32 %55, i32* %6, align 4
  br label %27

56:                                               ; preds = %51, %27
  %57 = load i32, i32* %7, align 4
  %58 = icmp eq i32 %57, 0
  br i1 %58, label %59, label %79

59:                                               ; preds = %56
  %60 = load i32, i32* %4, align 4
  store i32 %60, i32* %2, align 4
  br label %61

61:                                               ; preds = %75, %59
  %62 = load i32, i32* %2, align 4
  %63 = load i32, i32* %4, align 4
  %64 = load i32, i32* %3, align 4
  %65 = add nsw i32 %63, %64
  %66 = sub nsw i32 %65, 1
  %67 = icmp sle i32 %62, %66
  br i1 %67, label %68, label %78

68:                                               ; preds = %61
  %69 = load i32, i32* %2, align 4
  %70 = sext i32 %69 to i64
  %71 = getelementptr inbounds [600 x i8], [600 x i8]* %9, i64 0, i64 %70
  %72 = load i8, i8* %71, align 1
  %73 = sext i8 %72 to i32
  %74 = call i32 (i8*, ...) @printf(i8* getelementptr inbounds ([3 x i8], [3 x i8]* @.str.1, i64 0, i64 0), i32 %73)
  br label %75

75:                                               ; preds = %68
  %76 = load i32, i32* %2, align 4
  %77 = add nsw i32 %76, 1
  store i32 %77, i32* %2, align 4
  br label %61

78:                                               ; preds = %61
  br label %79

79:                                               ; preds = %78, %56
  %80 = load i32, i32* %2, align 4
  %81 = load i32, i32* %4, align 4
  %82 = load i32, i32* %3, align 4
  %83 = add nsw i32 %81, %82
  %84 = sub nsw i32 %83, 1
  %85 = icmp eq i32 %80, %84
  br i1 %85, label %86, label %88

86:                                               ; preds = %79
  %87 = call i32 (i8*, ...) @printf(i8* getelementptr inbounds ([2 x i8], [2 x i8]* @.str.2, i64 0, i64 0))
  store i32 0, i32* %2, align 4
  br label %88

88:                                               ; preds = %86, %79
  br label %89

89:                                               ; preds = %88
  %90 = load i32, i32* %4, align 4
  %91 = add nsw i32 %90, 1
  store i32 %91, i32* %4, align 4
  br label %20

92:                                               ; preds = %20
  br label %93

93:                                               ; preds = %92
  %94 = load i32, i32* %3, align 4
  %95 = add nsw i32 %94, 1
  store i32 %95, i32* %3, align 4
  br label %15

96:                                               ; preds = %15
  %97 = load i32, i32* %1, align 4
  ret i32 %97
}

declare dso_local i32 @__isoc99_scanf(i8*, ...) #1

; Function Attrs: nounwind readonly
declare dso_local i64 @strlen(i8*) #2

declare dso_local i32 @printf(i8*, ...) #1


!llvm.module.flags = !{!0}
!llvm.ident = !{!1}

!0 = !{i32 1, !"wchar_size", i32 4}
!1 = !{!"clang version 10.0.0-4ubuntu1 "}
